; Function Attrs: nounwind uwtable
define dso_local void @bzpopminCommand(ptr noundef %0) local_unnamed_addr #0 {
  %2 = getelementptr inbounds nuw i8, ptr %0, i64 96
  %3 = load ptr, ptr %2, align 8, !tbaa !136
  %4 = getelementptr inbounds nuw i8, ptr %3, i64 8
  %5 = getelementptr inbounds nuw i8, ptr %0, i64 88
  %6 = load i32, ptr %5, align 8, !tbaa !147
  %7 = add nsw i32 %6, -2
  %8 = add nsw i32 %6, -1
  tail call void @blockingGenericZpopCommand(ptr noundef %0, ptr noundef nonnull %4, i32 noundef %7, i32 noundef 0, i32 noundef %8, i64 noundef -1, i32 noundef 0, i32 noundef 0)
  ret void
}